; Function Attrs: mustprogress nounwind uwtable
define internal fastcc void @_ZNSt8_Rb_treeIN5Yosys5RTLIL8IdStringESt4pairIKS2_N12_GLOBAL__N_112cell_mappingEESt10_Select1stIS7_ESt4lessIS2_ESaIS7_EE12_M_drop_nodeEPSt13_Rb_tree_nodeIS7_E(ptr noundef nonnull %0) unnamed_addr #3 align 2 personality ptr @__gxx_personality_v0 {
  %2 = getelementptr inbounds nuw i8, ptr %0, i64 32
  %3 = getelementptr inbounds nuw i8, ptr %0, i64 48
  %4 = getelementptr inbounds nuw i8, ptr %0, i64 64
  %5 = load ptr, ptr %4, align 8, !tbaa !6
  invoke void @_ZNSt8_Rb_treeINSt7__cxx1112basic_stringIcSt11char_traitsIcESaIcEEESt4pairIKS5_cESt10_Select1stIS8_ESt4lessIS5_ESaIS8_EE8_M_eraseEPSt13_Rb_tree_nodeIS8_E(ptr noundef nonnull align 8 dereferenceable(48) %3, ptr noundef %5)
          to label %_ZNSt3mapINSt7__cxx1112basic_stringIcSt11char_traitsIcESaIcEEEcSt4lessIS5_ESaISt4pairIKS5_cEEED2Ev.exit.i.i.i.i.i unwind label %6

6:                                                ; preds = %1
  %7 = landingpad { ptr, i32 }
          catch ptr null
  %8 = extractvalue { ptr, i32 } %7, 0
  tail call void @__clang_call_terminate(ptr %8) #30
  unreachable

_ZNSt3mapINSt7__cxx1112basic_stringIcSt11char_traitsIcESaIcEEEcSt4lessIS5_ESaISt4pairIKS5_cEEED2Ev.exit.i.i.i.i.i: ; preds = %1
  %9 = getelementptr inbounds nuw i8, ptr %0, i64 40
  %10 = load i32, ptr %9, align 4, !tbaa !19
  %11 = load i8, ptr @_ZN5Yosys5RTLIL8IdString17destruct_guard_okE, align 1, !tbaa !22, !range !24, !noundef !25
  %12 = trunc nuw i8 %11 to i1
  %13 = icmp ne i32 %10, 0
  %or.cond.i.i.i.i.i.i.i = and i1 %13, %12
  br i1 %or.cond.i.i.i.i.i.i.i, label %14, label %_ZN12_GLOBAL__N_112cell_mappingD2Ev.exit.i.i.i.i

14:                                               ; preds = %_ZNSt3mapINSt7__cxx1112basic_stringIcSt11char_traitsIcESaIcEEEcSt4lessIS5_ESaISt4pairIKS5_cEEED2Ev.exit.i.i.i.i.i
  %15 = sext i32 %10 to i64
  %16 = load ptr, ptr @_ZN5Yosys5RTLIL8IdString24global_refcount_storage_E, align 8, !tbaa !26
  %17 = getelementptr inbounds nuw i32, ptr %16, i64 %15
  %18 = load i32, ptr %17, align 4, !tbaa !29
  %19 = add nsw i32 %18, -1
  store i32 %19, ptr %17, align 4, !tbaa !29
  %20 = icmp sgt i32 %18, 1
  br i1 %20, label %_ZN12_GLOBAL__N_112cell_mappingD2Ev.exit.i.i.i.i, label %21

21:                                               ; preds = %14
  invoke void @_ZN5Yosys5RTLIL8IdString14free_referenceEi(i32 noundef %10)
          to label %._ZN12_GLOBAL__N_112cell_mappingD2Ev.exit_crit_edge.i.i.i.i unwind label %22

._ZN12_GLOBAL__N_112cell_mappingD2Ev.exit_crit_edge.i.i.i.i: ; preds = %21
  %.pre.i.i.i.i = load i8, ptr @_ZN5Yosys5RTLIL8IdString17destruct_guard_okE, align 1, !tbaa !22, !range !24
  br label %_ZN12_GLOBAL__N_112cell_mappingD2Ev.exit.i.i.i.i

22:                                               ; preds = %21
  %23 = landingpad { ptr, i32 }
          catch ptr null
  %24 = extractvalue { ptr, i32 } %23, 0
  tail call void @__clang_call_terminate(ptr %24) #30
  unreachable

_ZN12_GLOBAL__N_112cell_mappingD2Ev.exit.i.i.i.i: ; preds = %._ZN12_GLOBAL__N_112cell_mappingD2Ev.exit_crit_edge.i.i.i.i, %14, %_ZNSt3mapINSt7__cxx1112basic_stringIcSt11char_traitsIcESaIcEEEcSt4lessIS5_ESaISt4pairIKS5_cEEED2Ev.exit.i.i.i.i.i
  %25 = phi i8 [ %.pre.i.i.i.i, %._ZN12_GLOBAL__N_112cell_mappingD2Ev.exit_crit_edge.i.i.i.i ], [ %11, %_ZNSt3mapINSt7__cxx1112basic_stringIcSt11char_traitsIcESaIcEEEcSt4lessIS5_ESaISt4pairIKS5_cEEED2Ev.exit.i.i.i.i.i ], [ 1, %14 ]
  %26 = load i32, ptr %2, align 4, !tbaa !19
  %27 = trunc nuw i8 %25 to i1
  %28 = icmp ne i32 %26, 0
  %or.cond.i.i.i.i.i.i = and i1 %28, %27
  br i1 %or.cond.i.i.i.i.i.i, label %29, label %_ZNSt8_Rb_treeIN5Yosys5RTLIL8IdStringESt4pairIKS2_N12_GLOBAL__N_112cell_mappingEESt10_Select1stIS7_ESt4lessIS2_ESaIS7_EE15_M_destroy_nodeEPSt13_Rb_tree_nodeIS7_E.exit

29:                                               ; preds = %_ZN12_GLOBAL__N_112cell_mappingD2Ev.exit.i.i.i.i
  %30 = sext i32 %26 to i64
  %31 = load ptr, ptr @_ZN5Yosys5RTLIL8IdString24global_refcount_storage_E, align 8, !tbaa !26
  %32 = getelementptr inbounds nuw i32, ptr %31, i64 %30
  %33 = load i32, ptr %32, align 4, !tbaa !29
  %34 = add nsw i32 %33, -1
  store i32 %34, ptr %32, align 4, !tbaa !29
  %35 = icmp sgt i32 %33, 1
  br i1 %35, label %_ZNSt8_Rb_treeIN5Yosys5RTLIL8IdStringESt4pairIKS2_N12_GLOBAL__N_112cell_mappingEESt10_Select1stIS7_ESt4lessIS2_ESaIS7_EE15_M_destroy_nodeEPSt13_Rb_tree_nodeIS7_E.exit, label %36

36:                                               ; preds = %29
  invoke void @_ZN5Yosys5RTLIL8IdString14free_referenceEi(i32 noundef %26)
          to label %_ZNSt8_Rb_treeIN5Yosys5RTLIL8IdStringESt4pairIKS2_N12_GLOBAL__N_112cell_mappingEESt10_Select1stIS7_ESt4lessIS2_ESaIS7_EE15_M_destroy_nodeEPSt13_Rb_tree_nodeIS7_E.exit unwind label %37

37:                                               ; preds = %36
  %38 = landingpad { ptr, i32 }
          catch ptr null
  %39 = extractvalue { ptr, i32 } %38, 0
  tail call void @__clang_call_terminate(ptr %39) #30
  unreachable

_ZNSt8_Rb_treeIN5Yosys5RTLIL8IdStringESt4pairIKS2_N12_GLOBAL__N_112cell_mappingEESt10_Select1stIS7_ESt4lessIS2_ESaIS7_EE15_M_destroy_nodeEPSt13_Rb_tree_nodeIS7_E.exit: ; preds = %_ZN12_GLOBAL__N_112cell_mappingD2Ev.exit.i.i.i.i, %29, %36
  tail call void @_ZdlPvm(ptr noundef nonnull %0, i64 noundef 96) #31
  ret void
}